; Function Attrs: nounwind uwtable
define range(i32 -38, 1) i32 @ff_fill_ayuv_map(ptr noundef captures(none) %0, i32 noundef %1) local_unnamed_addr #0 {
  %3 = tail call ptr @av_pix_fmt_desc_get(i32 noundef %1) #11
  %4 = getelementptr inbounds nuw i8, ptr %3, i64 16
  %5 = load i64, ptr %4, align 8, !tbaa !4
  %6 = and i64 %5, 32
  %.not = icmp eq i64 %6, 0
  br i1 %.not, label %7, label %9

7:                                                ; preds = %2
  %8 = tail call fastcc i32 @fill_map(ptr noundef nonnull %3, ptr noundef %0)
  br label %9

9:                                                ; preds = %2, %7
  %.0 = phi i32 [ %8, %7 ], [ -22, %2 ]
  ret i32 %.0
}